; Function Attrs: mustprogress nofree norecurse nosync nounwind willreturn memory(argmem: write) uwtable
define void @tls_set_max_pipelines(ptr noundef writeonly captures(none) initializes((4416, 4424)) %0, i64 noundef %1) #11 {
  %3 = getelementptr inbounds nuw i8, ptr %0, i64 4416
  store i64 %1, ptr %3, align 8, !tbaa !43
  %4 = icmp ugt i64 %1, 1
  br i1 %4, label %5, label %7

5:                                                ; preds = %2
  %6 = getelementptr inbounds nuw i8, ptr %0, i64 4108
  store i32 1, ptr %6, align 4, !tbaa !50
  br label %7

7:                                                ; preds = %5, %2
  ret void
}